target datalayout = "e-m:e-p270:32:32-p271:32:32-p272:64:64-i64:64-i128:128-f80:128-n8:16:32:64-S128"
target triple = "x86_64-pc-linux-gnu"

%struct.SDL_HIDAPI_Device = type { ptr, ptr, ptr, ptr, i16, i16, i16, ptr, %struct.SDL_GUID, i32, i32, i32, i32, i16, i16, i8, i32, i32, i32, ptr, ptr, ptr, ptr, %struct.SDL_AtomicInt, i32, ptr, i8, i8, i8, ptr, i32, ptr, ptr }
%struct.SDL_GUID = type { [16 x i8] }
%struct.SDL_AtomicInt = type { i32 }
%struct.GIP_Device = type { ptr, i64, i8, i8, i32, [8 x ptr] }
%struct.GIP_Attachment = type { ptr, i8, i32, i32, i8, i16, ptr, i32, i64, i32, i16, i16, i32, i64, i32, %struct.GIP_Metadata, i8, i8, i8, i8, i8, i32, i32, i64, i8, i8, i8, i8, i8, [64 x i8], i8, i8, i32, i32, i32, i32, i32, i32, i32, i8, i8, i32, i8, i32, i32 }
%struct.GIP_Metadata = type { i16, i16, %struct.GIP_DeviceMetadata, i8, ptr }
%struct.GIP_DeviceMetadata = type { i8, i8, i8, i8, [8 x i32], [8 x i32], ptr, ptr, ptr, ptr, i32 }

; Function Attrs: nounwind uwtable
define internal void @HIDAPI_DriverGIP_FreeDevice(ptr noundef %0) #0 {
  %2 = alloca ptr, align 8
  %3 = alloca ptr, align 8
  %4 = alloca i32, align 4
  %5 = alloca ptr, align 8
  %6 = alloca i32, align 4
  store ptr %0, ptr %2, align 8
  call void @llvm.lifetime.start.p0(i64 8, ptr %3) #6
  %7 = load ptr, ptr %2, align 8
  %8 = getelementptr inbounds nuw %struct.SDL_HIDAPI_Device, ptr %7, i32 0, i32 20
  %9 = load ptr, ptr %8, align 8
  store ptr %9, ptr %3, align 8
  call void @llvm.lifetime.start.p0(i64 4, ptr %4) #6
  store i32 0, ptr %4, align 4
  br label %10

10:                                               ; preds = %55, %1
  %11 = load i32, ptr %4, align 4
  %12 = icmp slt i32 %11, 8
  br i1 %12, label %13, label %58

13:                                               ; preds = %10
  call void @llvm.lifetime.start.p0(i64 8, ptr %5) #6
  %14 = load ptr, ptr %3, align 8
  %15 = getelementptr inbounds nuw %struct.GIP_Device, ptr %14, i32 0, i32 5
  %16 = load i32, ptr %4, align 4
  %17 = sext i32 %16 to i64
  %18 = getelementptr inbounds [8 x ptr], ptr %15, i64 0, i64 %17
  %19 = load ptr, ptr %18, align 8
  store ptr %19, ptr %5, align 8
  %20 = load ptr, ptr %5, align 8
  %21 = icmp ne ptr %20, null
  br i1 %21, label %23, label %22

22:                                               ; preds = %13
  store i32 4, ptr %6, align 4
  br label %52

23:                                               ; preds = %13
  %24 = load ptr, ptr %5, align 8
  %25 = getelementptr inbounds nuw %struct.GIP_Attachment, ptr %24, i32 0, i32 6
  %26 = load ptr, ptr %25, align 8
  %27 = icmp ne ptr %26, null
  br i1 %27, label %28, label %34

28:                                               ; preds = %23
  %29 = load ptr, ptr %5, align 8
  %30 = getelementptr inbounds nuw %struct.GIP_Attachment, ptr %29, i32 0, i32 6
  %31 = load ptr, ptr %30, align 8
  call void @SDL_free_REAL(ptr noundef %31)
  %32 = load ptr, ptr %5, align 8
  %33 = getelementptr inbounds nuw %struct.GIP_Attachment, ptr %32, i32 0, i32 6
  store ptr null, ptr %33, align 8
  br label %34

34:                                               ; preds = %28, %23
  %35 = load ptr, ptr %5, align 8
  %36 = getelementptr inbounds nuw %struct.GIP_Attachment, ptr %35, i32 0, i32 3
  %37 = load i32, ptr %36, align 8
  %38 = icmp ne i32 %37, 0
  br i1 %38, label %39, label %43

39:                                               ; preds = %34
  %40 = load ptr, ptr %5, align 8
  %41 = getelementptr inbounds nuw %struct.GIP_Attachment, ptr %40, i32 0, i32 3
  %42 = load i32, ptr %41, align 8
  call void @SDL_RemoveKeyboard(i32 noundef %42, i1 noundef zeroext true)
  br label %43

43:                                               ; preds = %39, %34
  %44 = load ptr, ptr %5, align 8
  %45 = getelementptr inbounds nuw %struct.GIP_Attachment, ptr %44, i32 0, i32 15
  call void @GIP_MetadataFree(ptr noundef %45)
  %46 = load ptr, ptr %5, align 8
  call void @SDL_free_REAL(ptr noundef %46)
  %47 = load ptr, ptr %3, align 8
  %48 = getelementptr inbounds nuw %struct.GIP_Device, ptr %47, i32 0, i32 5
  %49 = load i32, ptr %4, align 4
  %50 = sext i32 %49 to i64
  %51 = getelementptr inbounds [8 x ptr], ptr %48, i64 0, i64 %50
  store ptr null, ptr %51, align 8
  store i32 0, ptr %6, align 4
  br label %52

52:                                               ; preds = %43, %22
  call void @llvm.lifetime.end.p0(i64 8, ptr %5) #6
  %53 = load i32, ptr %6, align 4
  switch i32 %53, label %59 [
    i32 0, label %54
    i32 4, label %55
  ]

54:                                               ; preds = %52
  br label %55

55:                                               ; preds = %54, %52
  %56 = load i32, ptr %4, align 4
  %57 = add nsw i32 %56, 1
  store i32 %57, ptr %4, align 4
  br label %10, !llvm.loop !9

58:                                               ; preds = %10
  call void @llvm.lifetime.end.p0(i64 4, ptr %4) #6
  call void @llvm.lifetime.end.p0(i64 8, ptr %3) #6
  ret void

59:                                               ; preds = %52
  unreachable
}