; Function Attrs: nounwind uwtable
define internal void @HIDAPI_DriverGIP_FreeDevice(ptr noundef readonly captures(none) %0) #0 {
  %2 = getelementptr inbounds nuw i8, ptr %0, i64 112
  %3 = load ptr, ptr %2, align 8
  %4 = getelementptr inbounds nuw i8, ptr %3, i64 24
  br label %5

5:                                                ; preds = %1, %18
  %indvars.iv = phi i64 [ 0, %1 ], [ %indvars.iv.next, %18 ]
  %6 = getelementptr inbounds nuw [8 x ptr], ptr %4, i64 0, i64 %indvars.iv
  %7 = load ptr, ptr %6, align 8
  %.not = icmp eq ptr %7, null
  br i1 %.not, label %18, label %8

8:                                                ; preds = %5
  %9 = getelementptr inbounds nuw i8, ptr %7, i64 24
  %10 = load ptr, ptr %9, align 8
  %.not17 = icmp eq ptr %10, null
  br i1 %.not17, label %12, label %11

11:                                               ; preds = %8
  tail call void @SDL_free_REAL(ptr noundef nonnull %10) #10
  store ptr null, ptr %9, align 8
  br label %12

12:                                               ; preds = %11, %8
  %13 = getelementptr inbounds nuw i8, ptr %7, i64 16
  %14 = load i32, ptr %13, align 8
  %.not18 = icmp eq i32 %14, 0
  br i1 %.not18, label %16, label %15

15:                                               ; preds = %12
  tail call void @SDL_RemoveKeyboard(i32 noundef %14, i1 noundef zeroext true) #10
  br label %16

16:                                               ; preds = %15, %12
  %17 = getelementptr inbounds nuw i8, ptr %7, i64 80
  tail call fastcc void @GIP_MetadataFree(ptr noundef nonnull %17)
  tail call void @SDL_free_REAL(ptr noundef nonnull %7) #10
  store ptr null, ptr %6, align 8
  br label %18

18:                                               ; preds = %5, %16
  %indvars.iv.next = add nuw nsw i64 %indvars.iv, 1
  %exitcond.not = icmp eq i64 %indvars.iv.next, 8
  br i1 %exitcond.not, label %19, label %5, !llvm.loop !13

19:                                               ; preds = %18
  ret void
}